; Function Attrs: nounwind uwtable
define hidden ptr @lxb_tag_data_by_name(ptr noundef %0, ptr noundef %1, i64 noundef %2) local_unnamed_addr #0 {
  %4 = icmp eq ptr %1, null
  %5 = icmp eq i64 %2, 0
  %or.cond = or i1 %4, %5
  br i1 %or.cond, label %14, label %6

6:                                                ; preds = %3
  %7 = tail call ptr @lexbor_shs_entry_get_lower_static(ptr noundef nonnull @lxb_tag_res_shs_data_default, ptr noundef nonnull %1, i64 noundef %2) #5
  %.not = icmp eq ptr %7, null
  br i1 %.not, label %11, label %8

8:                                                ; preds = %6
  %9 = getelementptr inbounds i8, ptr %7, i64 8
  %10 = load ptr, ptr %9, align 8
  br label %14

11:                                               ; preds = %6
  %12 = load ptr, ptr @lexbor_hash_search_lower, align 8
  %13 = tail call ptr @lexbor_hash_search(ptr noundef %0, ptr noundef %12, ptr noundef nonnull %1, i64 noundef %2) #5
  br label %14

14:                                               ; preds = %3, %11, %8
  %.0 = phi ptr [ %10, %8 ], [ %13, %11 ], [ null, %3 ]
  ret ptr %.0
}